target datalayout = "e-m:e-p270:32:32-p271:32:32-p272:64:64-i64:64-i128:128-f80:128-n8:16:32:64-S128"
target triple = "x86_64-pc-linux-gnu"

%struct.UToolMemory = type { [64 x i8], i32, i32, i32, i32, ptr, [8 x i8], [1 x i8], [15 x i8] }

; Function Attrs: mustprogress uwtable
define void @utm_close(ptr noundef %0) #1 {
  %2 = alloca ptr, align 8
  store ptr %0, ptr %2, align 8, !tbaa !55
  %3 = load ptr, ptr %2, align 8, !tbaa !55
  %4 = icmp ne ptr %3, null
  br i1 %4, label %5, label %19

5:                                                ; preds = %1
  %6 = load ptr, ptr %2, align 8, !tbaa !55
  %7 = getelementptr inbounds nuw %struct.UToolMemory, ptr %6, i32 0, i32 5
  %8 = load ptr, ptr %7, align 16, !tbaa !57
  %9 = load ptr, ptr %2, align 8, !tbaa !55
  %10 = getelementptr inbounds nuw %struct.UToolMemory, ptr %9, i32 0, i32 7
  %11 = getelementptr inbounds [1 x i8], ptr %10, i64 0, i64 0
  %12 = icmp ne ptr %8, %11
  br i1 %12, label %13, label %17

13:                                               ; preds = %5
  %14 = load ptr, ptr %2, align 8, !tbaa !55
  %15 = getelementptr inbounds nuw %struct.UToolMemory, ptr %14, i32 0, i32 5
  %16 = load ptr, ptr %15, align 16, !tbaa !57
  call void @uprv_free_77(ptr noundef %16)
  br label %17

17:                                               ; preds = %13, %5
  %18 = load ptr, ptr %2, align 8, !tbaa !55
  call void @uprv_free_77(ptr noundef %18)
  br label %19

19:                                               ; preds = %17, %1
  ret void
}