; Function Attrs: mustprogress uwtable
define void @utm_close(ptr noundef %0) local_unnamed_addr #8 {
  %.not = icmp eq ptr %0, null
  br i1 %.not, label %8, label %2

2:                                                ; preds = %1
  %3 = getelementptr inbounds nuw i8, ptr %0, i64 80
  %4 = load ptr, ptr %3, align 16, !tbaa !36
  %5 = getelementptr inbounds nuw i8, ptr %0, i64 96
  %.not6 = icmp eq ptr %4, %5
  br i1 %.not6, label %7, label %6

6:                                                ; preds = %2
  tail call void @uprv_free_77(ptr noundef %4)
  br label %7

7:                                                ; preds = %6, %2
  tail call void @uprv_free_77(ptr noundef nonnull %0)
  br label %8

8:                                                ; preds = %7, %1
  ret void
}